Certificate:
    Data:
        Version: 3 (0x2)
        Serial Number: 1 (0x1)
    Signature Algorithm: sha256WithRSAEncryption
        Issuer: C=US, ST=Unset, L=Unset, O=Unset, CN=www.example.com
        Validity
            Not Before: Jun  7 04:21:23 2015 GMT
            Not After : Jun  4 04:21:23 2025 GMT
        Subject: C=US, ST=Unset, O=Unset, CN=www.example.com
        Subject Public Key Info:
            Public Key Algorithm: rsaEncryption
                Public-Key: (2048 bit)
                Modulus:
                    00:f1:c0:20:cb:ac:dd:a6:de:b8:3d:f6:1c:85:3a:
                    6c:80:09:e6:e7:2b:31:84:87:1c:b6:2c:59:fd:03:
                    4a:f7:6d:4d:90:00:d5:3b:55:ab:76:9d:94:aa:9c:
                    c3:bd:55:e2:9a:df:80:74:5b:40:cf:5f:49:3e:69:
                    96:18:21:61:1b:b1:53:92:18:ad:a5:c3:33:00:71:
                    17:bb:11:f7:49:ca:7c:7f:50:ad:15:54:93:9b:2f:
                    80:ac:c4:0c:95:40:51:45:a4:13:18:19:b9:81:a1:
                    37:77:9f:08:57:7b:93:d9:aa:d0:b3:8d:7b:8b:e5:
                    ec:a4:c7:bc:ca:22:32:74:29:53:6c:4b:bc:f1:bf:
                    89:d6:4b:14:63:78:54:8f:8c:56:b1:e6:7e:85:71:
                    09:66:1b:ea:af:9a:dd:05:e1:75:81:0f:04:db:1d:
                    5a:d5:90:39:c3:39:a4:7e:02:05:0d:47:36:36:c0:
                    77:b6:e3:38:21:5b:1f:6c:ae:3b:9d:c8:1c:d1:6d:
                    b7:f0:00:03:31:65:9e:c0:e9:83:78:f8:dc:0d:75:
                    5c:21:d4:8a:40:ec:e9:3f:df:4c:9e:fe:d4:b8:3f:
                    1e:4c:c3:a1:b4:51:eb:8e:ca:4d:5c:61:18:dc:13:
                    5a:50:6e:7f:e9:5d:e3:41:ea:ed:00:b5:e5:d4:79:
                    0e:eb
                Exponent: 65537 (0x10001)
        X509v3 extensions:
            X509v3 Basic Constraints: 
                CA:FALSE
            X509v3 Subject Key Identifier: 
                9F:84:FE:8E:3E:DB:1C:EB:A2:B6:7C:D8:9B:09:8E:5F:6A:A8:6E:EF
            X509v3 Authority Key Identifier: 
                keyid:A0:58:F8:58:E6:F2:67:C6:35:47:FE:8D:EA:23:E3:B5:54:AB:96:89

    Signature Algorithm: sha256WithRSAEncryption
         c4:7e:1a:80:fc:ea:91:48:3e:44:a7:98:75:41:f6:45:15:8e:
         ef:b3:9c:19:86:5e:f9:03:54:c8:c5:47:98:c5:4b:83:69:84:
         24:2a:59:3e:d9:aa:3b:94:e1:a4:66:c2:90:b1:30:22:22:e3:
         1d:da:ef:2e:f8:71:b9:a2:ef:83:b6:e5:7a:b1:b4:f6:77:d6:
         c9:9e:b0:a4:de:71:db:e2:63:1b:c3:3d:1c:b7:dd:61:05:5c:
         75:f2:60:a7:ae:d3:2a:d4:59:97:ed:1b:00:a2:a4:50:87:41:
         59:45:f4:4f:1e:9e:58:2d:5a:c1:ab:7f:bb:58:a2:33:f0:ee:
         14:9d:e6:61:33:12:38:85:6a:83:52:86:bd:91:34:c4:a9:0b:
         5d:63:fc:d9:5d:a4:c1:08:44:3f:25:9d:57:8e:1f:2f:0c:7b:
         52:ae:59:88:fc:35:d3:ac:bd:db:6a:a0:3b:e4:f6:cc:e7:95:
         e9:0d:da:4f:af:16:1c:b0:fa:4f:e6:4f:d4:17:ce:3f:78:9f:
         09:10:b3:c4:e5:ac:ca:84:7d:f2:2c:1d:ff:24:7c:af:b4:32:
         82:1b:ed:18:e7:16:6f:0a:6c:90:8a:f7:72:8d:af:eb:68:31:
         f1:f8:ad:b8:67:cd:f3:d2:19:65:d1:07:b2:24:80:32:dd:53:
         b3:64:2e:f8
-----BEGIN CERTIFICATE-----
MIIDZjCCAk6gAwIBAgIBATANBgkqhkiG9w0BAQsFADBXMQswCQYDVQQGEwJVUzEO
MAwGA1UECAwFVW5zZXQxDjAMBgNVBAcMBVVuc2V0MQ4wDAYDVQQKDAVVbnNldDEY
MBYGA1UEAwwPd3d3LmV4YW1wbGUuY29tMB4XDTE1MDYwNzA0MjEyM1oXDTI1MDYw
NDA0MjEyM1owRzELMAkGA1UEBhMCVVMxDjAMBgNVBAgMBVVuc2V0MQ4wDAYDVQQK
DAVVbnNldDEYMBYGA1UEAwwPd3d3LmV4YW1wbGUuY29tMIIBIjANBgkqhkiG9w0B
AQEFAAOCAQ8AMIIBCgKCAQEA8cAgy6zdpt64PfYchTpsgAnm5ysxhIcctixZ/QNK
921NkADVO1Wrdp2UqpzDvVXimt+AdFtAz19JPmmWGCFhG7FTkhitpcMzAHEXuxH3
Scp8f1CtFVSTmy+ArMQMlUBRRaQTGBm5gaE3d58IV3uT2arQs417i+XspMe8yiIy
dClTbEu88b+J1ksUY3hUj4xWseZ+hXEJZhvqr5rdBeF1gQ8E2x1a1ZA5wzmkfgIF
DUc2NsB3tuM4IVsfbK47ncgc0W238AADMWWewOmDePjcDXVcIdSKQOzpP99Mnv7U
uD8eTMOhtFHrjspNXGEY3BNaUG5/6V3jQertALXl1HkO6wIDAQABo00wSzAJBgNV
HRMEAjAAMB0GA1UdDgQWBBSfhP6OPtsc66K2fNibCY5faqhu7zAfBgNVHSMEGDAW
gBSgWPhY5vJnxjVH/o3qI+O1VKuWiTANBgkqhkiG9w0BAQsFAAOCAQEAxH4agPzq
kUg+RKeYdUH2RRWO77OcGYZe+QNUyMVHmMVLg2mEJCpZPtmqO5ThpGbCkLEwIiLj
HdrvLvhxuaLvg7blerG09nfWyZ6wpN5x2+JjG8M9HLfdYQVcdfJgp67TKtRZl+0b
AKKkUIdBWUX0Tx6eWC1awat/u1iiM/DuFJ3mYTMSOIVqg1KGvZE0xKkLXWP82V2k
wQhEPyWdV44fLwx7Uq5ZiPw106y922qgO+T2zOeV6Q3aT68WHLD6T+ZP1BfOP3if
CRCzxOWsyoR98iwd/yR8r7QyghvtGOcWbwpskIr3co2v62gx8fituGfN89IZZdEH
siSAMt1Ts2Qu+A==
-----END CERTIFICATE-----
